(dp0
I0
(dp1
S'2021_03_08'
p2
(dp3
S'24-16'
p4
(dp5
S'link'
p6
S'1yLCE7pT-BSjPTwwwCBC129mOAn0F-JhN'
p7
sS'name'
p8
S'dataset_2021_03_08_node24-16.pkl'
p9
sS'size'
p10
I262781170
ssS'24-13'
p11
(dp12
g6
S'1dy6wwskJTaWWZa1LVtmaF5436flQhHrc'
p13
sg8
S'dataset_2021_03_08_node24-13.pkl'
p14
sg10
I279714030
ssS'24-12'
p15
(dp16
g6
S'1thxrdBLLoG8qErRvM2akqPEiMrCFBDoG'
p17
sg8
S'dataset_2021_03_08_node24-12.pkl'
p18
sg10
I291490109
ssS'1-20'
p19
(dp20
g6
S'1a1gQIXWssh8Q1QqmkjV3RjDM_fuqUZNF'
p21
sg8
S'dataset_2021_03_08_node1-20.pkl'
p22
sg10
I317247055
ssS'24-18'
p23
(dp24
g6
S'1CmdmZSz7RhsHmoXGAjU4ZuW-JuxCb-cG'
p25
sg8
S'dataset_2021_03_08_node24-18.pkl'
p26
sg10
I297207972
ssS'24-5'
p27
(dp28
g6
S'1VgYKFcRkIZQ5bcyWGDwgckDgvPA3669V'
p29
sg8
S'dataset_2021_03_08_node24-5.pkl'
p30
sg10
I299641681
ssS'24-6'
p31
(dp32
g6
S'1UjNydCT8VdTUeCqw7oZHIoXY5iAw8U4z'
p33
sg8
S'dataset_2021_03_08_node24-6.pkl'
p34
sg10
I284974209
ssS'24-1'
p35
(dp36
g6
S'1xMpakNegS2N8PFKS66jmN4tzx4O1HV4n'
p37
sg8
S'dataset_2021_03_08_node24-1.pkl'
p38
sg10
I279661309
ssS'1-19'
p39
(dp40
g6
S'1wCIQz3Siieu0eDYWGLR0D2DZaHH7Rj53'
p41
sg8
S'dataset_2021_03_08_node1-19.pkl'
p42
sg10
I300670392
ssS'13-14'
p43
(dp44
g6
S'1ZZAIY-oBFKMAave6105oWzCVHreJ9s5Q'
p45
sg8
S'dataset_2021_03_08_node13-14.pkl'
p46
sg10
I116240598
ssS'23-3'
p47
(dp48
g6
S'1fqgbDZnFBMyik7kM_WPGXLWwpnprfBlN'
p49
sg8
S'dataset_2021_03_08_node23-3.pkl'
p50
sg10
I265979907
ssS'18-2'
p51
(dp52
g6
S'17uv90FZXRyTweuy2BPYklDNWqEHWzLa5'
p53
sg8
S'dataset_2021_03_08_node18-2.pkl'
p54
sg10
I322695423
ssS'23-1'
p55
(dp56
g6
S'1YwiLR2pZwBc2yiOpbzht3ZYji8Vt6l_2'
p57
sg8
S'dataset_2021_03_08_node23-1.pkl'
p58
sg10
I290474447
ssS'13-13'
p59
(dp60
g6
S'1KzXX71moo675FRcYI_SEsSJqSEEH3mf-'
p61
sg8
S'dataset_2021_03_08_node13-13.pkl'
p62
sg10
I28738261
ssS'23-7'
p63
(dp64
g6
S'1kAuGOynubScQ1jF2-6tYmcNxNuIVk8pW'
p65
sg8
S'dataset_2021_03_08_node23-7.pkl'
p66
sg10
I297212679
ssS'23-5'
p67
(dp68
g6
S'1OQO3lFlnaGfHAbdihnhZrLQmeiqbOT_N'
p69
sg8
S'dataset_2021_03_08_node23-5.pkl'
p70
sg10
I252057289
ssS'20-20'
p71
(dp72
g6
S'1kI4LHXRKiFkORLe5LB6Gue6yZM0HkYRu'
p73
sg8
S'dataset_2021_03_08_node20-20.pkl'
p74
sg10
I301935522
ssS'23-6'
p75
(dp76
g6
S'1GTQN6eHfzhswL3AVATirvfQa875lQomI'
p77
sg8
S'dataset_2021_03_08_node23-6.pkl'
p78
sg10
I272885844
ssS'3-19'
p79
(dp80
g6
S'1Dvji5XZ-Zapq2JQ6vuZ9F2m2m6cNw-Ed'
p81
sg8
S'dataset_2021_03_08_node3-19.pkl'
p82
sg10
I316370515
ssS'14-7'
p83
(dp84
g6
S'1ocNweksAtTyMWDnMneGujXM41LykLSxn'
p85
sg8
S'dataset_2021_03_08_node14-7.pkl'
p86
sg10
I303971388
ssS'2-20'
p87
(dp88
g6
S'1vujC61dvJJ1wGxjHUoVcb0jaopABlwoR'
p89
sg8
S'dataset_2021_03_08_node2-20.pkl'
p90
sg10
I194336865
ssS'2-1'
p91
(dp92
g6
S'10aoUX1OT9MzjbnFjv8HECqwbf8k9fCN1'
p93
sg8
S'dataset_2021_03_08_node2-1.pkl'
p94
sg10
I306203784
ssS'11-10'
p95
(dp96
g6
S'1JeNrwHGw_z_tzxImL5M9DTO20XHQosmw'
p97
sg8
S'dataset_2021_03_08_node11-10.pkl'
p98
sg10
I114003525
ssS'1-1'
p99
(dp100
g6
S'1cMR-r-NmLP-klg2cWentcgUcXp5xXNte'
p101
sg8
S'dataset_2021_03_08_node1-1.pkl'
p102
sg10
I311610584
ssS'8-14'
p103
(dp104
g6
S'1fX7KG8BzaeXwrOCe3VbC61a6EJlKaPlL'
p105
sg8
S'dataset_2021_03_08_node8-14.pkl'
p106
sg10
I168030438
ssS'7-14'
p107
(dp108
g6
S'1OUz_dEcW4fCFIOyoy6ENkv1mTklzmqAZ'
p109
sg8
S'dataset_2021_03_08_node7-14.pkl'
p110
sg10
I304459193
ssS'19-1'
p111
(dp112
g6
S'1iAhTKP0D8ovnyrTfeN6D7sf7pSi6JrXU'
p113
sg8
S'dataset_2021_03_08_node19-1.pkl'
p114
sg10
I302878436
ssS'19-2'
p115
(dp116
g6
S'1maMHZjaHBq-4hYrthbzJMqnVSLXYF3QT'
p117
sg8
S'dataset_2021_03_08_node19-2.pkl'
p118
sg10
I305057357
ssS'13-7'
p119
(dp120
g6
S'15UC8ep1tOSYDWJpx5FKG573DmfpusdJJ'
p121
sg8
S'dataset_2021_03_08_node13-7.pkl'
p122
sg10
I156500120
ssS'14-14'
p123
(dp124
g6
S'1worK9QC2jEn-Q772S48lLS8vhootAZ9A'
p125
sg8
S'dataset_2021_03_08_node14-14.pkl'
p126
sg10
I7793379
ssS'18-19'
p127
(dp128
g6
S'1ybszqlYKwXILknO0sS5t7gWxzXNB7BZn'
p129
sg8
S'dataset_2021_03_08_node18-19.pkl'
p130
sg10
I153943520
ssS'19-19'
p131
(dp132
g6
S'1qBa2VkfPCovqjmMTvW-vCE6LGsxx3-2v'
p133
sg8
S'dataset_2021_03_08_node19-19.pkl'
p134
sg10
I291953258
ssS'20-1'
p135
(dp136
g6
S'1meYvBlvS2KEtKYiTLsQA9DbQVpx2hhfD'
p137
sg8
S'dataset_2021_03_08_node20-1.pkl'
p138
sg10
I305557066
ssS'7-7'
p139
(dp140
g6
S'1PYz9aeUKHXHNVq86E_ESvWAVAcTpQBuj'
p141
sg8
S'dataset_2021_03_08_node7-7.pkl'
p142
sg10
I309550903
ssS'3-2'
p143
(dp144
g6
S'1WHFcZpfEZx6hXvECAR9djiBQYescwM1K'
p145
sg8
S'dataset_2021_03_08_node3-2.pkl'
p146
sg10
I167496341
ssS'8-8'
p147
(dp148
g6
S'1peb_kNMzqnT2JM5U9231E3Hr6niQ4aGY'
p149
sg8
S'dataset_2021_03_08_node8-8.pkl'
p150
sg10
I303873848
ssS'20-19'
p151
(dp152
g6
S'1j1DKFQIns0T25CF-3QMeAqbMEwAjvJ6A'
p153
sg8
S'dataset_2021_03_08_node20-19.pkl'
p154
sg10
I297872363
ssS'19-20'
p155
(dp156
g6
S'1bT5xFcfAx86EL_2pngB6dEjr4htalZWS'
p157
sg8
S'dataset_2021_03_08_node19-20.pkl'
p158
sg10
I301738531
ssS'8-7'
p159
(dp160
g6
S'1HUHjriWYOr9MdHKtqVIv781Wx_MonAYS'
p161
sg8
S'dataset_2021_03_08_node8-7.pkl'
p162
sg10
I166482004
ssS'2-19'
p163
(dp164
g6
S'1sLaA9OhecatvBfVyhVzB9je3rZaa75eB'
p165
sg8
S'dataset_2021_03_08_node2-19.pkl'
p166
sg10
I303086954
sssS'2021_03_01'
p167
(dp168
S'24-16'
p169
(dp170
g6
S'11BJC8AA3Jgg3gL46xYqNvU4Nia4NY-fw'
p171
sg8
S'dataset_2021_03_01_node24-16.pkl'
p172
sg10
I236365297
ssS'24-13'
p173
(dp174
g6
S'1KdJoPcJWXGDsJEftOPXRIl5QI7q3RLrN'
p175
sg8
S'dataset_2021_03_01_node24-13.pkl'
p176
sg10
I293607205
ssS'1-20'
p177
(dp178
g6
S'1imeHeWGnqQm2FfJDulcVDRwQSSa_v9_8'
p179
sg8
S'dataset_2021_03_01_node1-20.pkl'
p180
sg10
I292625615
ssS'24-18'
p181
(dp182
g6
S'1ZMARNbF4VrJC-b3GNq99bC74dEeM25JN'
p183
sg8
S'dataset_2021_03_01_node24-18.pkl'
p184
sg10
I282822588
ssS'24-5'
p185
(dp186
g6
S'1RKP0nfRTCr9htemViPl8pAXEXYfOqMEY'
p187
sg8
S'dataset_2021_03_01_node24-5.pkl'
p188
sg10
I286932317
ssS'24-6'
p189
(dp190
g6
S'1t9K3WypJT-cJdVngi_YhHgdeGtEyUCqb'
p191
sg8
S'dataset_2021_03_01_node24-6.pkl'
p192
sg10
I269494426
ssS'19-20'
p193
(dp194
g6
S'1h4rOpYGilcBPeQtF1AGQO2AcIs6PbAxa'
p195
sg8
S'dataset_2021_03_01_node19-20.pkl'
p196
sg10
I283479243
ssS'1-19'
p197
(dp198
g6
S'18sKwpsdWl3kCku6EpEBOmLO3R2j8ZS1g'
p199
sg8
S'dataset_2021_03_01_node1-19.pkl'
p200
sg10
I294730352
ssS'13-14'
p201
(dp202
g6
S'1GPmrvaVZZxMWEHkOffRPagboF0QGfKcy'
p203
sg8
S'dataset_2021_03_01_node13-14.pkl'
p204
sg10
I105951369
ssS'23-3'
p205
(dp206
g6
S'1jB4VlQqJFlh6UNzbgFtXQoRCr75X4MIM'
p207
sg8
S'dataset_2021_03_01_node23-3.pkl'
p208
sg10
I254883381
ssS'18-2'
p209
(dp210
g6
S'1S-yDW7DIWYHBohais5F9ioFXwlWg0-yQ'
p211
sg8
S'dataset_2021_03_01_node18-2.pkl'
p212
sg10
I314864021
ssS'23-1'
p213
(dp214
g6
S'1fruoB7kkNX6woVv_0vs6spKMAl9y8KOX'
p215
sg8
S'dataset_2021_03_01_node23-1.pkl'
p216
sg10
I271001142
ssS'23-6'
p217
(dp218
g6
S'1_BTSIeoXcBlesY8_EOEvxSQaQJ9e2WbJ'
p219
sg8
S'dataset_2021_03_01_node23-6.pkl'
p220
sg10
I250815820
ssS'23-7'
p221
(dp222
g6
S'1tswJeh5KQfgf0xxDFa_I6cKmByE1T3TG'
p223
sg8
S'dataset_2021_03_01_node23-7.pkl'
p224
sg10
I305125992
ssS'23-5'
p225
(dp226
g6
S'19IiaJ2rNCpiDFKMXn_fGVy6zf7HsEz1i'
p227
sg8
S'dataset_2021_03_01_node23-5.pkl'
p228
sg10
I236446740
ssS'20-20'
p229
(dp230
g6
S'15V7uGuAV2SwikTbabTRaheXxE2iALbXR'
p231
sg8
S'dataset_2021_03_01_node20-20.pkl'
p232
sg10
I263055374
ssS'13-13'
p233
(dp234
g6
S'1Fk6Q-MNrdbhukyNcWbMMiSFIQ-2G64yu'
p235
sg8
S'dataset_2021_03_01_node13-13.pkl'
p236
sg10
I290257059
ssS'3-19'
p237
(dp238
g6
S'1OC9aCkgfC3w1NuneHolEp01GteGNjEK7'
p239
sg8
S'dataset_2021_03_01_node3-19.pkl'
p240
sg10
I294951990
ssS'14-7'
p241
(dp242
g6
S'1Ox2Zv73jSMMiDcyHc6Jm4TRU8g9w-Sro'
p243
sg8
S'dataset_2021_03_01_node14-7.pkl'
p244
sg10
I295038009
ssS'2-1'
p245
(dp246
g6
S'1DchdZ7ZsWEyIBpez2yo64rh0TTXYlVlH'
p247
sg8
S'dataset_2021_03_01_node2-1.pkl'
p248
sg10
I293649540
ssS'11-10'
p249
(dp250
g6
S'1trMg3OePyuodJ-ulEjTfjXjOvQb9Yvzh'
p251
sg8
S'dataset_2021_03_01_node11-10.pkl'
p252
sg10
I125234826
ssS'1-1'
p253
(dp254
g6
S'1pGzrQhRqqX1I7tdBVfJIQOntoEKDIugU'
p255
sg8
S'dataset_2021_03_01_node1-1.pkl'
p256
sg10
I284014982
ssS'8-14'
p257
(dp258
g6
S'1z_k2KPdMaNOhN71co3AJ3Q7qtAHCjEhV'
p259
sg8
S'dataset_2021_03_01_node8-14.pkl'
p260
sg10
I150482870
ssS'7-14'
p261
(dp262
g6
S'1Wqf2z1_3F_SEIzNQhcEgnJ7-nTJ98E8s'
p263
sg8
S'dataset_2021_03_01_node7-14.pkl'
p264
sg10
I288828398
ssS'19-1'
p265
(dp266
g6
S'1IXWtiXiMDXE15ZwSe-8a84LBrCCGFdqd'
p267
sg8
S'dataset_2021_03_01_node19-1.pkl'
p268
sg10
I279681487
ssS'8-13'
p269
(dp270
g6
S'16te2w8aq3_GHMvXmEntT52P3joNVrpPO'
p271
sg8
S'dataset_2021_03_01_node8-13.pkl'
p272
sg10
I295575801
ssS'19-2'
p273
(dp274
g6
S'19Fk9Sh2aq57sgW9nTiFuIFy8SzbzYs_4'
p275
sg8
S'dataset_2021_03_01_node19-2.pkl'
p276
sg10
I289242925
ssS'13-7'
p277
(dp278
g6
S'1Dl6GDGiLyGOiesUDu87-05ADmmlSaBQ0'
p279
sg8
S'dataset_2021_03_01_node13-7.pkl'
p280
sg10
I140942217
ssS'14-14'
p281
(dp282
g6
S'1YFIsfL7zBF18C6uutbKk1_ZeLFfON7Ze'
p283
sg8
S'dataset_2021_03_01_node14-14.pkl'
p284
sg10
I5139092
ssS'18-19'
p285
(dp286
g6
S'1d6yjCqhqzntK6OK9SFUW-ZosZv8x1n0k'
p287
sg8
S'dataset_2021_03_01_node18-19.pkl'
p288
sg10
I151290006
ssS'19-19'
p289
(dp290
g6
S'1ALKNKSdrBFnhG5RfVVLVcQTmSapiYiog'
p291
sg8
S'dataset_2021_03_01_node19-19.pkl'
p292
sg10
I277441890
ssS'20-1'
p293
(dp294
g6
S'1uwPBVHCf3yeMh5IY_jYl9lYyJhBueq-t'
p295
sg8
S'dataset_2021_03_01_node20-1.pkl'
p296
sg10
I297979773
ssS'7-7'
p297
(dp298
g6
S'12fx0a1ebgnKmBO8lfgBqcBksNh7hwxEt'
p299
sg8
S'dataset_2021_03_01_node7-7.pkl'
p300
sg10
I293257235
ssS'3-2'
p301
(dp302
g6
S'1b8zTVXAtEZqsPut_IjBn81kaFMcmBUTb'
p303
sg8
S'dataset_2021_03_01_node3-2.pkl'
p304
sg10
I322949454
ssS'8-8'
p305
(dp306
g6
S'13L7YP0I_8gMXuTTO38djulxYBHi-Q0g9'
p307
sg8
S'dataset_2021_03_01_node8-8.pkl'
p308
sg10
I296126941
ssS'20-19'
p309
(dp310
g6
S'1ZGFl23rYcbjhMH4SaRa290ebbUGzZnbV'
p311
sg8
S'dataset_2021_03_01_node20-19.pkl'
p312
sg10
I279816882
ssS'8-7'
p313
(dp314
g6
S'1NN5IYTg7XNq-3m1J6MV-sNnD6cWnmw1o'
p315
sg8
S'dataset_2021_03_01_node8-7.pkl'
p316
sg10
I148480005
ssS'2-19'
p317
(dp318
g6
S'1cSCxOhaWln4A6Ch8koiughIujdCDkcCV'
p319
sg8
S'dataset_2021_03_01_node2-19.pkl'
p320
sg10
I282241265
sssS'2021_03_15'
p321
(dp322
S'24-16'
p323
(dp324
g6
S'1ILiLS2iBP9sSvylIqvUEz8BI6fotIwBJ'
p325
sg8
S'dataset_2021_03_15_node24-16.pkl'
p326
sg10
I263002280
ssS'24-13'
p327
(dp328
g6
S'1Nj3ZdA2zYDdj-yTEUd4qslV_ympj8z_v'
p329
sg8
S'dataset_2021_03_15_node24-13.pkl'
p330
sg10
I292952385
ssS'24-12'
p331
(dp332
g6
S'1dpB92zSh6x1eG10rQhhEVPLUAQkIpsBV'
p333
sg8
S'dataset_2021_03_15_node24-12.pkl'
p334
sg10
I311204846
ssS'7-7'
p335
(dp336
g6
S'1DbtDUv6jp3gJb8fIIADjykA6WgABy7NF'
p337
sg8
S'dataset_2021_03_15_node7-7.pkl'
p338
sg10
I300335054
ssS'24-5'
p339
(dp340
g6
S'13yHZ4RqUh4CqyEz1H1tfx1sH4-Q5QGAU'
p341
sg8
S'dataset_2021_03_15_node24-5.pkl'
p342
sg10
I285543327
ssS'24-6'
p343
(dp344
g6
S'1DskTuBQGnQETsx0CjRSrs020U4vcEkKT'
p345
sg8
S'dataset_2021_03_15_node24-6.pkl'
p346
sg10
I292015463
ssS'24-1'
p347
(dp348
g6
S'1dNbCQ1J32ZZMKmyBnJMrrQsU4r2T--E2'
p349
sg8
S'dataset_2021_03_15_node24-1.pkl'
p350
sg10
I278203440
ssS'1-19'
p351
(dp352
g6
S'1T5zD_oiK2tqnO9zL3fOXFAj3hkhsSMjM'
p353
sg8
S'dataset_2021_03_15_node1-19.pkl'
p354
sg10
I299974069
ssS'23-3'
p355
(dp356
g6
S'1Af2579VeOvMng5FncrQ0HQDyDdw9IG48'
p357
sg8
S'dataset_2021_03_15_node23-3.pkl'
p358
sg10
I291772578
ssS'18-2'
p359
(dp360
g6
S'1FJpXW1-h6gboOPLaho3JlDbv7pw6-moM'
p361
sg8
S'dataset_2021_03_15_node18-2.pkl'
p362
sg10
I313602224
ssS'13-14'
p363
(dp364
g6
S'1yOQ37SE-qGFoTRwS6gfA7Y3YvXneqWt6'
p365
sg8
S'dataset_2021_03_15_node13-14.pkl'
p366
sg10
I107167960
ssS'23-6'
p367
(dp368
g6
S'1cmMhUg_EdpS8eI1EpkB2eGS5kZoVZnTx'
p369
sg8
S'dataset_2021_03_15_node23-6.pkl'
p370
sg10
I289503240
ssS'23-7'
p371
(dp372
g6
S'10zh1iDkX4atVubknWYPK2QNnum8jKDWy'
p373
sg8
S'dataset_2021_03_15_node23-7.pkl'
p374
sg10
I314919693
ssS'23-5'
p375
(dp376
g6
S'1UlzYsizRvw9QI2TM6Kxj7EncpS3mDWjs'
p377
sg8
S'dataset_2021_03_15_node23-5.pkl'
p378
sg10
I269125408
ssS'20-20'
p379
(dp380
g6
S'17ubfmLbIX_ePOuhEGIuzeNhz5VKvY-5K'
p381
sg8
S'dataset_2021_03_15_node20-20.pkl'
p382
sg10
I301906772
ssS'13-13'
p383
(dp384
g6
S'158aLGQvbaprP4Q6qqBCoelUJDbCelAbB'
p385
sg8
S'dataset_2021_03_15_node13-13.pkl'
p386
sg10
I29487830
ssS'3-19'
p387
(dp388
g6
S'12c0fYg40aElql1AHjC_B14vSCZofunW_'
p389
sg8
S'dataset_2021_03_15_node3-19.pkl'
p390
sg10
I303779639
ssS'14-7'
p391
(dp392
g6
S'135v1Mbh3qX2JWIvYHiLv9BHvFxrGFIeL'
p393
sg8
S'dataset_2021_03_15_node14-7.pkl'
p394
sg10
I302984174
ssS'2-20'
p395
(dp396
g6
S'18P-7JRC4r277FtCozKTM4RPPFER1yqdK'
p397
sg8
S'dataset_2021_03_15_node2-20.pkl'
p398
sg10
I275554550
ssS'2-1'
p399
(dp400
g6
S'1oIQD_JfWBwGlYxoLtCK1ShWS8E7ffBRr'
p401
sg8
S'dataset_2021_03_15_node2-1.pkl'
p402
sg10
I295844923
ssS'11-10'
p403
(dp404
g6
S'1SrAkV1WL3cuSwhaKtCoXmbq1YbMUUyLi'
p405
sg8
S'dataset_2021_03_15_node11-10.pkl'
p406
sg10
I120987273
ssS'1-1'
p407
(dp408
g6
S'1on3iQOw1UYbb_N2rPHBgkbe5yhqsn6Y8'
p409
sg8
S'dataset_2021_03_15_node1-1.pkl'
p410
sg10
I302959751
ssS'8-14'
p411
(dp412
g6
S'1vEpZmeaj9SrN_stjiV2SvJ_DgwsCdzbH'
p413
sg8
S'dataset_2021_03_15_node8-14.pkl'
p414
sg10
I158191771
ssS'7-14'
p415
(dp416
g6
S'1XuFrLiYDHzAhs3dNm8G6mfL-98WzH2W7'
p417
sg8
S'dataset_2021_03_15_node7-14.pkl'
p418
sg10
I300392017
ssS'19-1'
p419
(dp420
g6
S'1pgmqX_SmNWc28jnE5n6boE9UQo_1uhAG'
p421
sg8
S'dataset_2021_03_15_node19-1.pkl'
p422
sg10
I296971778
ssS'8-13'
p423
(dp424
g6
S'1t9wY-qnwFrMCVSOLBAqBrPNFblLWIdxg'
p425
sg8
S'dataset_2021_03_15_node8-13.pkl'
p426
sg10
I303362077
ssS'19-2'
p427
(dp428
g6
S'17EzwJ6eegPPkTGLyMMg7hLxjhx6dKyl5'
p429
sg8
S'dataset_2021_03_15_node19-2.pkl'
p430
sg10
I295897864
ssS'13-7'
p431
(dp432
g6
S'1vHHZ20MASEOUMBl5VqweOWQ6-i6_fYhk'
p433
sg8
S'dataset_2021_03_15_node13-7.pkl'
p434
sg10
I153845913
ssS'14-14'
p435
(dp436
g6
S'1JcoLJvDWWkk5S415lsG94UNCG0TKH0q_'
p437
sg8
S'dataset_2021_03_15_node14-14.pkl'
p438
sg10
I10337302
ssS'18-19'
p439
(dp440
g6
S'1NZr6O0nAUuHNo8dNWmfe2Ngao9pfGder'
p441
sg8
S'dataset_2021_03_15_node18-19.pkl'
p442
sg10
I151207468
ssS'19-19'
p443
(dp444
g6
S'1dy1v6cPRJpxm1jDZMof6j90j_cnz4D9_'
p445
sg8
S'dataset_2021_03_15_node19-19.pkl'
p446
sg10
I295103154
ssS'20-1'
p447
(dp448
g6
S'12TpyRxVIqYNmIPFWZikXSUnqRRBXn4Tw'
p449
sg8
S'dataset_2021_03_15_node20-1.pkl'
p450
sg10
I288316471
ssS'1-20'
p451
(dp452
g6
S'1U6jOEWvpQ-1k7Rx-H5BJnyp90YShhfnH'
p453
sg8
S'dataset_2021_03_15_node1-20.pkl'
p454
sg10
I299855818
ssS'3-2'
p455
(dp456
g6
S'1N_4YCJMLPIOrl-9ZnoF8lVkww_kuAnDn'
p457
sg8
S'dataset_2021_03_15_node3-2.pkl'
p458
sg10
I209886856
ssS'23-1'
p459
(dp460
g6
S'10u2kuGH4R0vnpkZfq38ip2iUHNz0-yrJ'
p461
sg8
S'dataset_2021_03_15_node23-1.pkl'
p462
sg10
I293808595
ssS'8-8'
p463
(dp464
g6
S'1f3f4GC9YXPxdjAaQy-Iiw0dtTCVSKXDI'
p465
sg8
S'dataset_2021_03_15_node8-8.pkl'
p466
sg10
I299220870
ssS'20-19'
p467
(dp468
g6
S'1zBOIpbhgxv_Fvuh4EWW53KEnVvEX-8Yf'
p469
sg8
S'dataset_2021_03_15_node20-19.pkl'
p470
sg10
I297159425
ssS'19-20'
p471
(dp472
g6
S'1yQMy9LP2PowjDalKimqyKZ3rYK9oEKz9'
p473
sg8
S'dataset_2021_03_15_node19-20.pkl'
p474
sg10
I295570106
ssS'8-7'
p475
(dp476
g6
S'1XHCzEXSKSwJbnO6qCbw7HxqPu02Ui5_H'
p477
sg8
S'dataset_2021_03_15_node8-7.pkl'
p478
sg10
I157782024
ssS'2-19'
p479
(dp480
g6
S'1PCIaTNmVDJhSIwdKQngBo33zKmpEX1xu'
p481
sg8
S'dataset_2021_03_15_node2-19.pkl'
p482
sg10
I297589894
sssS'2021_03_23'
p483
(dp484
S'24-16'
p485
(dp486
g6
S'1Rw1z0QnnOTcOKkpVc3YRaf49wkLn0Hvn'
p487
sg8
S'dataset_2021_03_23_node24-16.pkl'
p488
sg10
I266332098
ssS'24-13'
p489
(dp490
g6
S'1tpOrAoZFeVYWJSiBt12JsuhNB8KNw2Nh'
p491
sg8
S'dataset_2021_03_23_node24-13.pkl'
p492
sg10
I276142314
ssS'24-12'
p493
(dp494
g6
S'1JcMob2uDue5KPxRj-gSbHUoRQpSTVw1K'
p495
sg8
S'dataset_2021_03_23_node24-12.pkl'
p496
sg10
I307595505
ssS'1-20'
p497
(dp498
g6
S'14EqVvWIrd7jh0QqRM2bx09p3qhfUqqXR'
p499
sg8
S'dataset_2021_03_23_node1-20.pkl'
p500
sg10
I313155376
ssS'24-18'
p501
(dp502
g6
S'1UveW74d1feJjfjQwyb2JDyGYqHk6UU6Q'
p503
sg8
S'dataset_2021_03_23_node24-18.pkl'
p504
sg10
I304642361
ssS'24-5'
p505
(dp506
g6
S'14KkrhfcsEl5UiyczILH8L2TJQBdvMOSy'
p507
sg8
S'dataset_2021_03_23_node24-5.pkl'
p508
sg10
I291855182
ssS'24-6'
p509
(dp510
g6
S'13FBeIGF16ZSXqKycgbMq3s13ZqaBhIwi'
p511
sg8
S'dataset_2021_03_23_node24-6.pkl'
p512
sg10
I297315225
ssS'19-20'
p513
(dp514
g6
S'1R4TcH0_MfLv2SfrXRF4qwH9whrMlx0wE'
p515
sg8
S'dataset_2021_03_23_node19-20.pkl'
p516
sg10
I314505837
ssS'1-19'
p517
(dp518
g6
S'1fg3yyogkO39GuOdf_xl1ja1JyWIr4kRP'
p519
sg8
S'dataset_2021_03_23_node1-19.pkl'
p520
sg10
I309186430
ssS'13-14'
p521
(dp522
g6
S'1lynvw8ZD7W9r5jrEhzUA02PIBWelUtKS'
p523
sg8
S'dataset_2021_03_23_node13-14.pkl'
p524
sg10
I103551120
ssS'23-3'
p525
(dp526
g6
S'13bJir6-lT6vgRV56yKBsjF2-51y15zb8'
p527
sg8
S'dataset_2021_03_23_node23-3.pkl'
p528
sg10
I284841985
ssS'18-2'
p529
(dp530
g6
S'1dFAYBWkXS0ws26iWlLCm233YEQOoIOH0'
p531
sg8
S'dataset_2021_03_23_node18-2.pkl'
p532
sg10
I331006430
ssS'23-1'
p533
(dp534
g6
S'1Yo2grUpbrySgjRgQPnplBYQxBP68kdSh'
p535
sg8
S'dataset_2021_03_23_node23-1.pkl'
p536
sg10
I301361383
ssS'13-13'
p537
(dp538
g6
S'1pxs8W7INPo4dYOs0RhTi_l0BnZdbVrbQ'
p539
sg8
S'dataset_2021_03_23_node13-13.pkl'
p540
sg10
I322136685
ssS'23-7'
p541
(dp542
g6
S'11fIPnVr5w4KB0imab7iLYvBcOTOJaoYG'
p543
sg8
S'dataset_2021_03_23_node23-7.pkl'
p544
sg10
I301996653
ssS'23-5'
p545
(dp546
g6
S'1M3TmaEJwFWxN5Ouwz_uhNG8TbW9yzSMn'
p547
sg8
S'dataset_2021_03_23_node23-5.pkl'
p548
sg10
I267532129
ssS'20-20'
p549
(dp550
g6
S'1IdIZWZ8EJay74xL84Bej6hRrWs7m4sgO'
p551
sg8
S'dataset_2021_03_23_node20-20.pkl'
p552
sg10
I299534957
ssS'23-6'
p553
(dp554
g6
S'10YWU2JdMd10FxfjHfUA-eT8y7xR-b_HR'
p555
sg8
S'dataset_2021_03_23_node23-6.pkl'
p556
sg10
I267937632
ssS'3-19'
p557
(dp558
g6
S'1Mn5wDCEHJz39Am9Lg01uKW-lpp2Afxle'
p559
sg8
S'dataset_2021_03_23_node3-19.pkl'
p560
sg10
I321892146
ssS'14-7'
p561
(dp562
g6
S'13Vd80oTnxaYLYFD7he11ZTGsbn__nGNK'
p563
sg8
S'dataset_2021_03_23_node14-7.pkl'
p564
sg10
I314919764
ssS'2-20'
p565
(dp566
g6
S'1QC-nIZWdPYDqyfQrmHeYu7U3W8RF2Sa7'
p567
sg8
S'dataset_2021_03_23_node2-20.pkl'
p568
sg10
I320015494
ssS'2-1'
p569
(dp570
g6
S'1Ic_02JIErQxGlDf_z7G3nbXTvtuFinEG'
p571
sg8
S'dataset_2021_03_23_node2-1.pkl'
p572
sg10
I311352681
ssS'11-10'
p573
(dp574
g6
S'1I-gPdFuvvxAjHdmjsXx6nhdR0qifmDcF'
p575
sg8
S'dataset_2021_03_23_node11-10.pkl'
p576
sg10
I115301495
ssS'1-1'
p577
(dp578
g6
S'1u85awfHwCTb0if1oKSXpfyDSy099knEe'
p579
sg8
S'dataset_2021_03_23_node1-1.pkl'
p580
sg10
I320699830
ssS'8-14'
p581
(dp582
g6
S'1a3J5S05ISvXKrp558qBYRNdVusxIXaX7'
p583
sg8
S'dataset_2021_03_23_node8-14.pkl'
p584
sg10
I161849117
ssS'7-14'
p585
(dp586
g6
S'19kYwUug4ALzaP6zwIt-2TIGrKwpnhTvI'
p587
sg8
S'dataset_2021_03_23_node7-14.pkl'
p588
sg10
I317308723
ssS'19-1'
p589
(dp590
g6
S'1ndyumweZa6qeS2KDrskS36zgK5eP63ag'
p591
sg8
S'dataset_2021_03_23_node19-1.pkl'
p592
sg10
I316009526
ssS'8-13'
p593
(dp594
g6
S'1PlOprBKsARiqVMw64qi7L1Y9fhxJxB-g'
p595
sg8
S'dataset_2021_03_23_node8-13.pkl'
p596
sg10
I321294360
ssS'19-2'
p597
(dp598
g6
S'1ry2Krt-LwA7IlKxCYe01yK4JDhn2XDhD'
p599
sg8
S'dataset_2021_03_23_node19-2.pkl'
p600
sg10
I311815297
ssS'13-7'
p601
(dp602
g6
S'1_1arAm4g53PF8V6mm3K0wpVXgAEp1674'
p603
sg8
S'dataset_2021_03_23_node13-7.pkl'
p604
sg10
I157318332
ssS'14-14'
p605
(dp606
g6
S'146RFEEfmAKr7Z2r_tPE7-yFsqyGsKZXN'
p607
sg8
S'dataset_2021_03_23_node14-14.pkl'
p608
sg10
I5487564
ssS'18-19'
p609
(dp610
g6
S'1eWF10HK7GFa2TiMqCoI9ie7efmJfiPl2'
p611
sg8
S'dataset_2021_03_23_node18-19.pkl'
p612
sg10
I149338855
ssS'19-19'
p613
(dp614
g6
S'13joLng3nMszwZP8O1OuEb-CGi2OPLit-'
p615
sg8
S'dataset_2021_03_23_node19-19.pkl'
p616
sg10
I304724430
ssS'20-1'
p617
(dp618
g6
S'1ToSEMuUeUfha0YPQv9Di8nWBIIbkc32T'
p619
sg8
S'dataset_2021_03_23_node20-1.pkl'
p620
sg10
I309832910
ssS'7-7'
p621
(dp622
g6
S'1W9GEcnhbL5blqe3GwoJGMTzshBqrXtqo'
p623
sg8
S'dataset_2021_03_23_node7-7.pkl'
p624
sg10
I312205180
ssS'3-2'
p625
(dp626
g6
S'1RR6aGjEt8P-R6UvDHeqcxBFPMRXpR6K5'
p627
sg8
S'dataset_2021_03_23_node3-2.pkl'
p628
sg10
I208797470
ssS'8-8'
p629
(dp630
g6
S'1Mk82jQWxLItWcTpc4OnELFEIeGAdFyhf'
p631
sg8
S'dataset_2021_03_23_node8-8.pkl'
p632
sg10
I315162421
ssS'20-19'
p633
(dp634
g6
S'1URIlaDf0KAFKNJ3LNmeU74NjXf8Qyp8e'
p635
sg8
S'dataset_2021_03_23_node20-19.pkl'
p636
sg10
I302025399
ssS'8-7'
p637
(dp638
g6
S'19lv_zprH7f5rg6Vt03_4W2-if4maqXhM'
p639
sg8
S'dataset_2021_03_23_node8-7.pkl'
p640
sg10
I170111060
ssS'2-19'
p641
(dp642
g6
S'149kFCBQvDRhjeA7adFQBOd0zJym7_lIK'
p643
sg8
S'dataset_2021_03_23_node2-19.pkl'
p644
sg10
I310730015
ssssI1
(dp645
g2
(dp646
S'24-16'
p647
(dp648
g6
S'1bHknUepsyOBQShGvlijkPycR7__B6P-a'
p649
sg8
S'dataset_2021_03_08_node24-16.pkl'
p650
sg10
I208844804
ssS'24-13'
p651
(dp652
g6
S'13YIk3PMtkIu8AyisfSMWl5LosKir4_pU'
p653
sg8
S'dataset_2021_03_08_node24-13.pkl'
p654
sg10
I222644611
ssS'24-12'
p655
(dp656
g6
S'15zAksWT4sraCZxDRqV03DXfJzooi04NW'
p657
sg8
S'dataset_2021_03_08_node24-12.pkl'
p658
sg10
I242707274
ssS'1-20'
p659
(dp660
g6
S'1-cgBaAZNeDqcC30V7WZU7iRnhmFt_Vbh'
p661
sg8
S'dataset_2021_03_08_node1-20.pkl'
p662
sg10
I292649887
ssS'24-18'
p663
(dp664
g6
S'1nm6Byz2lPIgQcpC5Xi1CYLYK-rDQ8uau'
p665
sg8
S'dataset_2021_03_08_node24-18.pkl'
p666
sg10
I280131979
ssS'24-5'
p667
(dp668
g6
S'15panQeVklCtJn6V5Qid1ODMGW1-4MgJ4'
p669
sg8
S'dataset_2021_03_08_node24-5.pkl'
p670
sg10
I209661270
ssS'24-6'
p671
(dp672
g6
S'1btaZDYdGZ_ZstWxwFCsqh983Kz94aSLc'
p673
sg8
S'dataset_2021_03_08_node24-6.pkl'
p674
sg10
I231350658
ssS'24-1'
p675
(dp676
g6
S'1h_yJxPnfCqsWXQ1T9aNpnCUpAWklhF0s'
p677
sg8
S'dataset_2021_03_08_node24-1.pkl'
p678
sg10
I199962007
ssS'1-19'
p679
(dp680
g6
S'1-nVk75Hy4vh2tz11uOEciJfR8MSWi7IG'
p681
sg8
S'dataset_2021_03_08_node1-19.pkl'
p682
sg10
I283040600
ssS'13-14'
p683
(dp684
g6
S'1vah07SIOJK-YjOFFOcGsEd67o6RJt_n8'
p685
sg8
S'dataset_2021_03_08_node13-14.pkl'
p686
sg10
I111734996
ssS'23-3'
p687
(dp688
g6
S'1WJ9ZboDZF4UpKto_VmIpS0_aC13x0Xkw'
p689
sg8
S'dataset_2021_03_08_node23-3.pkl'
p690
sg10
I212101495
ssS'18-2'
p691
(dp692
g6
S'1eCYN-k0OXX7Ijnw5luj_GPsyit0lkxYF'
p693
sg8
S'dataset_2021_03_08_node18-2.pkl'
p694
sg10
I293486997
ssS'23-1'
p695
(dp696
g6
S'1yffow9pYYFdN7DBfi6CQc4Gobz19Vfpr'
p697
sg8
S'dataset_2021_03_08_node23-1.pkl'
p698
sg10
I238385683
ssS'13-13'
p699
(dp700
g6
S'1kNGV-8gGYrzunuGvfrtk0AoSTC4nGjXF'
p701
sg8
S'dataset_2021_03_08_node13-13.pkl'
p702
sg10
I28730069
ssS'23-7'
p703
(dp704
g6
S'1rBCXlnPqY1j7GOvHr5jLJVwFklHuEHmW'
p705
sg8
S'dataset_2021_03_08_node23-7.pkl'
p706
sg10
I246995632
ssS'23-5'
p707
(dp708
g6
S'1LWFqZY8W3t315D893EGw9lgsATH_udLO'
p709
sg8
S'dataset_2021_03_08_node23-5.pkl'
p710
sg10
I208783429
ssS'20-20'
p711
(dp712
g6
S'15UTttZ7c9HmJL6nkVW6x6KHM86i9v7Al'
p713
sg8
S'dataset_2021_03_08_node20-20.pkl'
p714
sg10
I260606727
ssS'23-6'
p715
(dp716
g6
S'1KHFX00geqorPnteNnfxoB7w9BRLZuYBL'
p717
sg8
S'dataset_2021_03_08_node23-6.pkl'
p718
sg10
I229886102
ssS'3-19'
p719
(dp720
g6
S'1vgj-yhgdQGg6EE3bUYUzOBQ1zkQnBR29'
p721
sg8
S'dataset_2021_03_08_node3-19.pkl'
p722
sg10
I295203070
ssS'14-7'
p723
(dp724
g6
S'1sHNlF1gMm41TCtOLIBFbKJNgBmfvIpE0'
p725
sg8
S'dataset_2021_03_08_node14-7.pkl'
p726
sg10
I291449765
ssS'2-20'
p727
(dp728
g6
S'1wwEtUzzVKUJl4Xr8KQUrVfe2OqQPrD1o'
p729
sg8
S'dataset_2021_03_08_node2-20.pkl'
p730
sg10
I186833450
ssS'2-1'
p731
(dp732
g6
S'1GEnqDiMBxKsZDgzElKayebCUqQUqgubL'
p733
sg8
S'dataset_2021_03_08_node2-1.pkl'
p734
sg10
I290475144
ssS'11-10'
p735
(dp736
g6
S'1wm55yk4as4X4XuvqE3yd1ZAW7Ogewxqk'
p737
sg8
S'dataset_2021_03_08_node11-10.pkl'
p738
sg10
I14692201
ssS'1-1'
p739
(dp740
g6
S'15dKk2SS01hznqQwNKhO2fYN5-CSAH-ay'
p741
sg8
S'dataset_2021_03_08_node1-1.pkl'
p742
sg10
I302652404
ssS'8-14'
p743
(dp744
g6
S'1J94IEwAvi9Ib2MJ1n2yyB4keXxQALuCM'
p745
sg8
S'dataset_2021_03_08_node8-14.pkl'
p746
sg10
I162369766
ssS'7-14'
p747
(dp748
g6
S'1tnMGdhYnhlGGJdDV24wCcuslLoN5z_b4'
p749
sg8
S'dataset_2021_03_08_node7-14.pkl'
p750
sg10
I286915111
ssS'19-1'
p751
(dp752
g6
S'1yI3FAXt62prNsVNtnce0JaYRPBd-hnu7'
p753
sg8
S'dataset_2021_03_08_node19-1.pkl'
p754
sg10
I278864193
ssS'19-2'
p755
(dp756
g6
S'1inmwUVsykTXD7UK9w4ysa0-jEu29ofN7'
p757
sg8
S'dataset_2021_03_08_node19-2.pkl'
p758
sg10
I288203155
ssS'13-7'
p759
(dp760
g6
S'12S7ed4gy-SWK_i79dmE-ywYdYwcfNHdV'
p761
sg8
S'dataset_2021_03_08_node13-7.pkl'
p762
sg10
I153399447
ssS'14-14'
p763
(dp764
g6
S'19sRKvf0UQJ2bHUB-mOjjc25sk8fFDosY'
p765
sg8
S'dataset_2021_03_08_node14-14.pkl'
p766
sg10
I2086904
ssS'18-19'
p767
(dp768
g6
S'1I-Z6V11Vw-n4Z8yAzC489ramd8WTJ2z6'
p769
sg8
S'dataset_2021_03_08_node18-19.pkl'
p770
sg10
I146632390
ssS'19-19'
p771
(dp772
g6
S'1XPHeaLOiyTzOIqOFVmio8EtXxcIuncba'
p773
sg8
S'dataset_2021_03_08_node19-19.pkl'
p774
sg10
I275003858
ssS'20-1'
p775
(dp776
g6
S'1Bv1qTiVhBNa0RnHuIeXXtqvZ06oBEtQj'
p777
sg8
S'dataset_2021_03_08_node20-1.pkl'
p778
sg10
I285262299
ssS'7-7'
p779
(dp780
g6
S'1qDx25CaeKnzgbkEL9TAzfBEtQHDwGYZM'
p781
sg8
S'dataset_2021_03_08_node7-7.pkl'
p782
sg10
I289856573
ssS'3-2'
p783
(dp784
g6
S'15X7BSUabtrqOwa7zQRin5-Z1h6uxj8cD'
p785
sg8
S'dataset_2021_03_08_node3-2.pkl'
p786
sg10
I144849630
ssS'8-8'
p787
(dp788
g6
S'1_XkFVEfTEvhxQ0Erlto3yTkQrDurMFoI'
p789
sg8
S'dataset_2021_03_08_node8-8.pkl'
p790
sg10
I295643996
ssS'20-19'
p791
(dp792
g6
S'1izAiC0R7wQLFHluEAbR0jjJGUXWTAfOy'
p793
sg8
S'dataset_2021_03_08_node20-19.pkl'
p794
sg10
I273365999
ssS'19-20'
p795
(dp796
g6
S'1eNFFli2CISYd6MKk5omZPdw5WC84eiMA'
p797
sg8
S'dataset_2021_03_08_node19-20.pkl'
p798
sg10
I258841346
ssS'8-7'
p799
(dp800
g6
S'1Ak4wRCZmoHp6m5aQP4t-bZtU6shqCq-u'
p801
sg8
S'dataset_2021_03_08_node8-7.pkl'
p802
sg10
I163659934
ssS'2-19'
p803
(dp804
g6
S'1IuofvYYEPP5POE6Y6GLLo8zZZMIUHxZQ'
p805
sg8
S'dataset_2021_03_08_node2-19.pkl'
p806
sg10
I267226313
sssg167
(dp807
S'24-16'
p808
(dp809
g6
S'1b-AO8klNmPMgYInx_Z2Uro65qvIciDiA'
p810
sg8
S'dataset_2021_03_01_node24-16.pkl'
p811
sg10
I189814627
ssS'24-13'
p812
(dp813
g6
S'1HasHr0svSHefNe_OZwcqIZQyL6zKfJ0u'
p814
sg8
S'dataset_2021_03_01_node24-13.pkl'
p815
sg10
I210868450
ssS'1-20'
p816
(dp817
g6
S'1bxF1expJr0nxkISuYAOGEbgz_6xOQ5eR'
p818
sg8
S'dataset_2021_03_01_node1-20.pkl'
p819
sg10
I265210018
ssS'24-18'
p820
(dp821
g6
S'12nEN19Wps8k10-kY5xf6rGPFuwcODyTk'
p822
sg8
S'dataset_2021_03_01_node24-18.pkl'
p823
sg10
I257558532
ssS'24-5'
p824
(dp825
g6
S'1hok48BBBubJZ6EJy4i8UdLV7XobWowDM'
p826
sg8
S'dataset_2021_03_01_node24-5.pkl'
p827
sg10
I199818119
ssS'24-6'
p828
(dp829
g6
S'15bRM1IRyV5HLFKSWkqgaN11JohZDQOL7'
p830
sg8
S'dataset_2021_03_01_node24-6.pkl'
p831
sg10
I213957364
ssS'19-20'
p832
(dp833
g6
S'1ZhqSq8egCqxuDQ-ewzExLgFk-83aOemE'
p834
sg8
S'dataset_2021_03_01_node19-20.pkl'
p835
sg10
I259135420
ssS'1-19'
p836
(dp837
g6
S'18eORTRjbPLj2MIHPAaOoFgmzxwHOd5It'
p838
sg8
S'dataset_2021_03_01_node1-19.pkl'
p839
sg10
I274925886
ssS'13-14'
p840
(dp841
g6
S'1eJo6TYLG2nX_amfyCtISdunmwPpg0LF5'
p842
sg8
S'dataset_2021_03_01_node13-14.pkl'
p843
sg10
I104026247
ssS'23-3'
p844
(dp845
g6
S'10PgYxSCsfga53UtFJb5grzuwqLB6vYQa'
p846
sg8
S'dataset_2021_03_01_node23-3.pkl'
p847
sg10
I190200097
ssS'18-2'
p848
(dp849
g6
S'1J4rXdiYnQ7bbx1H406Aj_7-0j9q4cMt1'
p850
sg8
S'dataset_2021_03_01_node18-2.pkl'
p851
sg10
I278061454
ssS'23-1'
p852
(dp853
g6
S'1oEcE14EWe0Ug1boVZLe_UxbUXxt0Wcky'
p854
sg8
S'dataset_2021_03_01_node23-1.pkl'
p855
sg10
I216357083
ssS'23-6'
p856
(dp857
g6
S'1ZVx5VMX69FG7GcVusKiCFzSjmuYsx-qI'
p858
sg8
S'dataset_2021_03_01_node23-6.pkl'
p859
sg10
I198006540
ssS'23-7'
p860
(dp861
g6
S'12JPeNJOCgu4WwYQ6uwC78f3D8vQEX5TG'
p862
sg8
S'dataset_2021_03_01_node23-7.pkl'
p863
sg10
I222128657
ssS'23-5'
p864
(dp865
g6
S'1bN89L9h6PgCza4Ta6TWtT7MCqbvldiaI'
p866
sg8
S'dataset_2021_03_01_node23-5.pkl'
p867
sg10
I191895229
ssS'20-20'
p868
(dp869
g6
S'1v7ZInJkDEkbUjha2ntoXTLXt88ajmOEo'
p870
sg8
S'dataset_2021_03_01_node20-20.pkl'
p871
sg10
I240985892
ssS'13-13'
p872
(dp873
g6
S'13dmBg5oRnXdrS34pMGlC-MAVlpvAuAZE'
p874
sg8
S'dataset_2021_03_01_node13-13.pkl'
p875
sg10
I270481572
ssS'3-19'
p876
(dp877
g6
S'1e2ORU0u20WEGWTD7K7dzTy4V7kenxLHg'
p878
sg8
S'dataset_2021_03_01_node3-19.pkl'
p879
sg10
I275370079
ssS'14-7'
p880
(dp881
g6
S'1kBoyJTmFTpLexuYK0V00j8yc6W2XEM88'
p882
sg8
S'dataset_2021_03_01_node14-7.pkl'
p883
sg10
I275245375
ssS'2-1'
p884
(dp885
g6
S'1bai5JmjqIYzXXn3Uw1S9ilRM87ODEbV8'
p886
sg8
S'dataset_2021_03_01_node2-1.pkl'
p887
sg10
I273713928
ssS'11-10'
p888
(dp889
g6
S'1PNM3Ir9kInB8E8tc_5kErZ9fFSjcYZY-'
p890
sg8
S'dataset_2021_03_01_node11-10.pkl'
p891
sg10
I13671606
ssS'1-1'
p892
(dp893
g6
S'1uOAUBpKvmJvu8l7Dpc2YEIabLzD-ATAd'
p894
sg8
S'dataset_2021_03_01_node1-1.pkl'
p895
sg10
I271345825
ssS'8-14'
p896
(dp897
g6
S'10RoJ_n2Duw3XJG2kzkE_3_X0LkSmfMxA'
p898
sg8
S'dataset_2021_03_01_node8-14.pkl'
p899
sg10
I147165489
ssS'7-14'
p900
(dp901
g6
S'1bq87DpAt7FoM7ntwr62vHkGaU11-g3eA'
p902
sg8
S'dataset_2021_03_01_node7-14.pkl'
p903
sg10
I273721356
ssS'19-1'
p904
(dp905
g6
S'1Orq4Vt25xsiN3gjsD9g02mMaHtV3L61u'
p906
sg8
S'dataset_2021_03_01_node19-1.pkl'
p907
sg10
I257108505
ssS'8-13'
p908
(dp909
g6
S'1YUdfyJ8ibuvA_FnSH92w_ZD1IDyjPZAj'
p910
sg8
S'dataset_2021_03_01_node8-13.pkl'
p911
sg10
I289421555
ssS'19-2'
p912
(dp913
g6
S'1ZdQxakrWnuV-UP82NZPia015HrDr3mbE'
p914
sg8
S'dataset_2021_03_01_node19-2.pkl'
p915
sg10
I278282483
ssS'13-7'
p916
(dp917
g6
S'129W5iDxxuZUKU3YTRzMmeNPULTaawuUZ'
p918
sg8
S'dataset_2021_03_01_node13-7.pkl'
p919
sg10
I138727500
ssS'14-14'
p920
(dp921
g6
S'1LO6L4BvYP8OKF5e60l4bOOVPBE_hrpHz'
p922
sg8
S'dataset_2021_03_01_node14-14.pkl'
p923
sg10
I1819945
ssS'18-19'
p924
(dp925
g6
S'1rBtMM6vkMTTlxCWVbroQm5OACGrmomMY'
p926
sg8
S'dataset_2021_03_01_node18-19.pkl'
p927
sg10
I143471046
ssS'19-19'
p928
(dp929
g6
S'1Llerl-le2HBBiK5tRkq54TNlo5f3Uvkn'
p930
sg8
S'dataset_2021_03_01_node19-19.pkl'
p931
sg10
I263419757
ssS'20-1'
p932
(dp933
g6
S'1dM-psiii9n8TyaXeysHYNlz2YYHnavYG'
p934
sg8
S'dataset_2021_03_01_node20-1.pkl'
p935
sg10
I264683838
ssS'7-7'
p936
(dp937
g6
S'1mG5QO0nPQ6x0ODrBX5nvZU8GoxLn9-Op'
p938
sg8
S'dataset_2021_03_01_node7-7.pkl'
p939
sg10
I269338864
ssS'3-2'
p940
(dp941
g6
S'1zz7sx74D19Wz-8ze-nRlTJKI_-DsnHAz'
p942
sg8
S'dataset_2021_03_01_node3-2.pkl'
p943
sg10
I280535369
ssS'8-8'
p944
(dp945
g6
S'1Y5PTE9FZ3Ps6hvwUMjxzY5FEz0T8bYmx'
p946
sg8
S'dataset_2021_03_01_node8-8.pkl'
p947
sg10
I277981273
ssS'20-19'
p948
(dp949
g6
S'1qusn1vRexd1jyeO2CGzpldwUhyDnedx9'
p950
sg8
S'dataset_2021_03_01_node20-19.pkl'
p951
sg10
I263010539
ssS'8-7'
p952
(dp953
g6
S'1dhVrmZ_3zfMYYke4iDZjbqPbRE_LatZq'
p954
sg8
S'dataset_2021_03_01_node8-7.pkl'
p955
sg10
I145682588
ssS'2-19'
p956
(dp957
g6
S'16IgAMuu5I1t4BV0RBJ9YI4md-VgI-fu2'
p958
sg8
S'dataset_2021_03_01_node2-19.pkl'
p959
sg10
I251774905
sssg321
(dp960
S'24-16'
p961
(dp962
g6
S'1-2bmU-q7Wt4G2cSzoS3RkuO2-QCPGj95'
p963
sg8
S'dataset_2021_03_15_node24-16.pkl'
p964
sg10
I207079582
ssS'24-13'
p965
(dp966
g6
S'1TgRVRnLY8TmNu6wbfP8XOjHAp86nmIjs'
p967
sg8
S'dataset_2021_03_15_node24-13.pkl'
p968
sg10
I220199604
ssS'24-12'
p969
(dp970
g6
S'1yltpc1z3TN02moodkT7VI-Vd3O7Gvnhi'
p971
sg8
S'dataset_2021_03_15_node24-12.pkl'
p972
sg10
I243362560
ssS'7-7'
p973
(dp974
g6
S'13kQgpM5iSZrZdaSS5feYB_1qpa6d2tgK'
p975
sg8
S'dataset_2021_03_15_node7-7.pkl'
p976
sg10
I287775725
ssS'24-5'
p977
(dp978
g6
S'18LMf51w1zvUfo4MRdr8WP7k9f3VBP0eR'
p979
sg8
S'dataset_2021_03_15_node24-5.pkl'
p980
sg10
I211939111
ssS'24-6'
p981
(dp982
g6
S'1murLoDu1F9QGenvbEE4h5oB1qmiYaFl_'
p983
sg8
S'dataset_2021_03_15_node24-6.pkl'
p984
sg10
I230130052
ssS'24-1'
p985
(dp986
g6
S'1bljNeBecr91evsAguZkwUid4eXXDqv7H'
p987
sg8
S'dataset_2021_03_15_node24-1.pkl'
p988
sg10
I202489930
ssS'1-19'
p989
(dp990
g6
S'1OHUnlw4aFXc7gqGG9CtLA27mI7mX0rXn'
p991
sg8
S'dataset_2021_03_15_node1-19.pkl'
p992
sg10
I287456006
ssS'23-3'
p993
(dp994
g6
S'1iaqG_ub8_qxT6GtPQy5SgvPDcWnIF74C'
p995
sg8
S'dataset_2021_03_15_node23-3.pkl'
p996
sg10
I221088203
ssS'18-2'
p997
(dp998
g6
S'1S0BFlqI0po_qEwwwqjHYV2jI700OFUN2'
p999
sg8
S'dataset_2021_03_15_node18-2.pkl'
p1000
sg10
I288620716
ssS'13-14'
p1001
(dp1002
g6
S'1ckZ2M7CE4Qr2qXAbMkD6uDWHMJ4XNa9Z'
p1003
sg8
S'dataset_2021_03_15_node13-14.pkl'
p1004
sg10
I102465748
ssS'23-6'
p1005
(dp1006
g6
S'1gmFu1nY8Tpa8qgLY1KF9UGhTPXtBjtEj'
p1007
sg8
S'dataset_2021_03_15_node23-6.pkl'
p1008
sg10
I227350832
ssS'23-7'
p1009
(dp1010
g6
S'1rtmt1gJq7_oFFxBlWbOm-mZb0biuLhh9'
p1011
sg8
S'dataset_2021_03_15_node23-7.pkl'
p1012
sg10
I247393022
ssS'23-5'
p1013
(dp1014
g6
S'1DKdIzk5JmprlGiXC9RDqqx_DcQ_p1k5j'
p1015
sg8
S'dataset_2021_03_15_node23-5.pkl'
p1016
sg10
I210774087
ssS'20-20'
p1017
(dp1018
g6
S'1K39pEnVpqFix0LivgjOMZdyL21PNGHFu'
p1019
sg8
S'dataset_2021_03_15_node20-20.pkl'
p1020
sg10
I267131654
ssS'13-13'
p1021
(dp1022
g6
S'1b6Xd3E-DehjhOvxJ7hJowj9Uw4V9r4r0'
p1023
sg8
S'dataset_2021_03_15_node13-13.pkl'
p1024
sg10
I29467350
ssS'3-19'
p1025
(dp1026
g6
S'142abmMMp43d_ypJR-qcVTdU0aAGjjBtk'
p1027
sg8
S'dataset_2021_03_15_node3-19.pkl'
p1028
sg10
I282419300
ssS'14-7'
p1029
(dp1030
g6
S'1TXcNCmopk-JiCeLsusqR8TOW9c7i4Pfk'
p1031
sg8
S'dataset_2021_03_15_node14-7.pkl'
p1032
sg10
I292268961
ssS'2-20'
p1033
(dp1034
g6
S'174vck5HNBiwU-7spGVOqWC9DqOIndzTq'
p1035
sg8
S'dataset_2021_03_15_node2-20.pkl'
p1036
sg10
I267399260
ssS'2-1'
p1037
(dp1038
g6
S'16kk6Ne14zlbmf154qICdfl9HM3jsfuTF'
p1039
sg8
S'dataset_2021_03_15_node2-1.pkl'
p1040
sg10
I286137323
ssS'11-10'
p1041
(dp1042
g6
S'13hO2e1rC4PHYU5Rz8p_XyeI_TXI1ASjB'
p1043
sg8
S'dataset_2021_03_15_node11-10.pkl'
p1044
sg10
I14315286
ssS'1-1'
p1045
(dp1046
g6
S'1fssk1sWKZZTzErvJ-7TL_MCDTB9R-0z0'
p1047
sg8
S'dataset_2021_03_15_node1-1.pkl'
p1048
sg10
I292285497
ssS'8-14'
p1049
(dp1050
g6
S'1DbJa6XYkW2bd2AFyQicm4cd2jlXtRc9J'
p1051
sg8
S'dataset_2021_03_15_node8-14.pkl'
p1052
sg10
I153682073
ssS'7-14'
p1053
(dp1054
g6
S'1fuBYBnKAg4DVuHYifJpLRy2_wcqqAvse'
p1055
sg8
S'dataset_2021_03_15_node7-14.pkl'
p1056
sg10
I284404334
ssS'19-1'
p1057
(dp1058
g6
S'16Zlbbk8Iwgi4Jd6WGxPGXtiwnCqjOHqb'
p1059
sg8
S'dataset_2021_03_15_node19-1.pkl'
p1060
sg10
I273181446
ssS'8-13'
p1061
(dp1062
g6
S'1Q4iL3ARVrm1WRN3OuS3_dx8kRcoJZqaM'
p1063
sg8
S'dataset_2021_03_15_node8-13.pkl'
p1064
sg10
I300821410
ssS'19-2'
p1065
(dp1066
g6
S'1LR39uXDjqmRUdgHZo9rbqg1FMqVLj_P2'
p1067
sg8
S'dataset_2021_03_15_node19-2.pkl'
p1068
sg10
I288279836
ssS'13-7'
p1069
(dp1070
g6
S'152QJBHQ1YZ62AJ00qFjCPuleQo9uL7u0'
p1071
sg8
S'dataset_2021_03_15_node13-7.pkl'
p1072
sg10
I151527575
ssS'14-14'
p1073
(dp1074
g6
S'1TNsTvlcErAxpLkItngjr7JA1lFDrENMb'
p1075
sg8
S'dataset_2021_03_15_node14-14.pkl'
p1076
sg10
I2066252
ssS'18-19'
p1077
(dp1078
g6
S'1ym8Yd0APzeavL4Qw57EBVkWSEvY9hz7P'
p1079
sg8
S'dataset_2021_03_15_node18-19.pkl'
p1080
sg10
I144457335
ssS'19-19'
p1081
(dp1082
g6
S'1B2Az-1-MFPGpw8ahTlynXqXf0PVedOpf'
p1083
sg8
S'dataset_2021_03_15_node19-19.pkl'
p1084
sg10
I277080526
ssS'20-1'
p1085
(dp1086
g6
S'1i07lfbKAdgk6hLIw6EhpBwu82MCiyozj'
p1087
sg8
S'dataset_2021_03_15_node20-1.pkl'
p1088
sg10
I272092745
ssS'1-20'
p1089
(dp1090
g6
S'1i4klP5IIYq6jmuacXSFYymBH4J2dqaTN'
p1091
sg8
S'dataset_2021_03_15_node1-20.pkl'
p1092
sg10
I275110887
ssS'3-2'
p1093
(dp1094
g6
S'1_aiqx5H1D-JYEx2xytLCWqenPPV_wquT'
p1095
sg8
S'dataset_2021_03_15_node3-2.pkl'
p1096
sg10
I170864333
ssS'23-1'
p1097
(dp1098
g6
S'13c90aDBuCRYyRXO5u6OXbHwo-zM3eqqS'
p1099
sg8
S'dataset_2021_03_15_node23-1.pkl'
p1100
sg10
I243989092
ssS'8-8'
p1101
(dp1102
g6
S'1Yp9j6Ex2IGdwH8PESCeeJH6PHnwYrrG4'
p1103
sg8
S'dataset_2021_03_15_node8-8.pkl'
p1104
sg10
I293592048
ssS'20-19'
p1105
(dp1106
g6
S'1biBl9UVvhReg6y0gWF5al9AfA4HhKU16'
p1107
sg8
S'dataset_2021_03_15_node20-19.pkl'
p1108
sg10
I264129280
ssS'19-20'
p1109
(dp1110
g6
S'1y-s_PvM_PG2NAc6aYeOxkdMoMmR1Qvgv'
p1111
sg8
S'dataset_2021_03_15_node19-20.pkl'
p1112
sg10
I256842190
ssS'8-7'
p1113
(dp1114
g6
S'1kcw0EkaRBL65ql2A1NTHv6bQicPoo_Ou'
p1115
sg8
S'dataset_2021_03_15_node8-7.pkl'
p1116
sg10
I151568466
ssS'2-19'
p1117
(dp1118
g6
S'14KsHX_lI1A6xnOo-OIvsH8zk9muxcF9A'
p1119
sg8
S'dataset_2021_03_15_node2-19.pkl'
p1120
sg10
I265886541
sssg483
(dp1121
S'24-16'
p1122
(dp1123
g6
S'1cn4QddVaDmTNUcWEmYw6IJaz_tOBfICm'
p1124
sg8
S'dataset_2021_03_23_node24-16.pkl'
p1125
sg10
I201181793
ssS'24-13'
p1126
(dp1127
g6
S'1QGOMXq1h4bYNzQCj0BytBlv83bF2R538'
p1128
sg8
S'dataset_2021_03_23_node24-13.pkl'
p1129
sg10
I219294152
ssS'24-12'
p1130
(dp1131
g6
S'1qfVRm6mmMzGbgMe_JKUFgVB4oAqYL71Y'
p1132
sg8
S'dataset_2021_03_23_node24-12.pkl'
p1133
sg10
I241495011
ssS'1-20'
p1134
(dp1135
g6
S'1vrIeKg507D5vfJBK-S8GBN1--FWs8gOC'
p1136
sg8
S'dataset_2021_03_23_node1-20.pkl'
p1137
sg10
I285493943
ssS'24-18'
p1138
(dp1139
g6
S'1rRWEDL0J6sQJVjZd0mQhLQuK906fMWSY'
p1140
sg8
S'dataset_2021_03_23_node24-18.pkl'
p1141
sg10
I287882064
ssS'24-5'
p1142
(dp1143
g6
S'1ZfWshmDObxa1sSndQ6MqcNBLX0OHgZEw'
p1144
sg8
S'dataset_2021_03_23_node24-5.pkl'
p1145
sg10
I219877227
ssS'24-6'
p1146
(dp1147
g6
S'1u37F1L5juL4FEeEA6p9O2p7ciobwjpkf'
p1148
sg8
S'dataset_2021_03_23_node24-6.pkl'
p1149
sg10
I239911295
ssS'19-20'
p1150
(dp1151
g6
S'17rxZfKcL9K6elRXy8sFZhGoBOomTQeZM'
p1152
sg8
S'dataset_2021_03_23_node19-20.pkl'
p1153
sg10
I265312793
ssS'1-19'
p1154
(dp1155
g6
S'1bbzwyNJMS6ozt6fuTZxodDvi1HxWQO3R'
p1156
sg8
S'dataset_2021_03_23_node1-19.pkl'
p1157
sg10
I286817261
ssS'13-14'
p1158
(dp1159
g6
S'13IKpMyJv0ZWtXsEvPfossG9feL1gTSrH'
p1160
sg8
S'dataset_2021_03_23_node13-14.pkl'
p1161
sg10
I98750682
ssS'23-3'
p1162
(dp1163
g6
S'12qpLQKRvguwH2jWPaMZtEJzCQsnprdLF'
p1164
sg8
S'dataset_2021_03_23_node23-3.pkl'
p1165
sg10
I210532876
ssS'18-2'
p1166
(dp1167
g6
S'1m070E8PTnApEEYM2AkTgHZcX0pnAEbCx'
p1168
sg8
S'dataset_2021_03_23_node18-2.pkl'
p1169
sg10
I298107198
ssS'23-1'
p1170
(dp1171
g6
S'1sFNrRocfWNuENWT5iUyYA0Vg45EzcEOW'
p1172
sg8
S'dataset_2021_03_23_node23-1.pkl'
p1173
sg10
I233187929
ssS'13-13'
p1174
(dp1175
g6
S'10DUb5TEgXtnDrLeMHW3ignKFVKVpPEN4'
p1176
sg8
S'dataset_2021_03_23_node13-13.pkl'
p1177
sg10
I303397637
ssS'23-7'
p1178
(dp1179
g6
S'1rxGcQHPbHCI-YyO64uGXFBcz0QGM89DS'
p1180
sg8
S'dataset_2021_03_23_node23-7.pkl'
p1181
sg10
I238603230
ssS'23-5'
p1182
(dp1183
g6
S'1muhvIb2ye9hcpIpPpgchw0hMpO8CEEHL'
p1184
sg8
S'dataset_2021_03_23_node23-5.pkl'
p1185
sg10
I207788177
ssS'20-20'
p1186
(dp1187
g6
S'1tkjR-_XnMz7KMZSaSXV9bkHeT2zKU-i9'
p1188
sg8
S'dataset_2021_03_23_node20-20.pkl'
p1189
sg10
I260581918
ssS'23-6'
p1190
(dp1191
g6
S'1usIPSYjC-RVOM_91E37awtGYvYZ_VSVy'
p1192
sg8
S'dataset_2021_03_23_node23-6.pkl'
p1193
sg10
I234248566
ssS'3-19'
p1194
(dp1195
g6
S'11LW_uX583WopdBKo5WxbxwOtIvd-ht3e'
p1196
sg8
S'dataset_2021_03_23_node3-19.pkl'
p1197
sg10
I293908498
ssS'14-7'
p1198
(dp1199
g6
S'1tUHhpvikIhBoUUIq5nC0jtOFVBttvO4C'
p1200
sg8
S'dataset_2021_03_23_node14-7.pkl'
p1201
sg10
I300620474
ssS'2-20'
p1202
(dp1203
g6
S'1zKU1VQwnVS6DsKJRCPNy9KmIXSZNCHsn'
p1204
sg8
S'dataset_2021_03_23_node2-20.pkl'
p1205
sg10
I298639155
ssS'2-1'
p1206
(dp1207
g6
S'1GKjbeylaHodTJ8jmxk19CatmMGTOTCc3'
p1208
sg8
S'dataset_2021_03_23_node2-1.pkl'
p1209
sg10
I295238786
ssS'11-10'
p1210
(dp1211
g6
S'17K1-TpeSKNtW20gNiuLVhpFBnt3cfizK'
p1212
sg8
S'dataset_2021_03_23_node11-10.pkl'
p1213
sg10
I13794867
ssS'1-1'
p1214
(dp1215
g6
S'1bpPLCSVNU8w__0cLgIWpZemv9VizrqOw'
p1216
sg8
S'dataset_2021_03_23_node1-1.pkl'
p1217
sg10
I299785350
ssS'8-14'
p1218
(dp1219
g6
S'19BCxKdZdyejCymV0YwfCxesZ6Op6BXUA'
p1220
sg8
S'dataset_2021_03_23_node8-14.pkl'
p1221
sg10
I158019815
ssS'7-14'
p1222
(dp1223
g6
S'1efr-5GQZrTVKBwYR-ckYVT6AnxnatLvg'
p1224
sg8
S'dataset_2021_03_23_node7-14.pkl'
p1225
sg10
I298691488
ssS'19-1'
p1226
(dp1227
g6
S'1vHbaWrx0SaPcicBP2iK1rXKMcG4xyYno'
p1228
sg8
S'dataset_2021_03_23_node19-1.pkl'
p1229
sg10
I276836594
ssS'8-13'
p1230
(dp1231
g6
S'1q-4W8Q2s9b6NKbIb9RIHDBVulpNBN7pX'
p1232
sg8
S'dataset_2021_03_23_node8-13.pkl'
p1233
sg10
I312941776
ssS'19-2'
p1234
(dp1235
g6
S'1RZ17STqxCmBX686HgtW9LF2Yn3zhvkr2'
p1236
sg8
S'dataset_2021_03_23_node19-2.pkl'
p1237
sg10
I286842972
ssS'13-7'
p1238
(dp1239
g6
S'1dMfB10jC4XN0qP3FJIDPx9y7y3jEi6_f'
p1240
sg8
S'dataset_2021_03_23_node13-7.pkl'
p1241
sg10
I154222746
ssS'14-14'
p1242
(dp1243
g6
S'1JYdQK-0rtAMifl07xk4rUCGIPLhHbw-M'
p1244
sg8
S'dataset_2021_03_23_node14-14.pkl'
p1245
sg10
I1947254
ssS'18-19'
p1246
(dp1247
g6
S'1JmMP11GZVfjHwIkr0DQEHmC9Us85KQRp'
p1248
sg8
S'dataset_2021_03_23_node18-19.pkl'
p1249
sg10
I142204538
ssS'19-19'
p1250
(dp1251
g6
S'1V070yIFSkt6g_sf5JwNQs10fLkZ3v5_q'
p1252
sg8
S'dataset_2021_03_23_node19-19.pkl'
p1253
sg10
I284473806
ssS'20-1'
p1254
(dp1255
g6
S'1OCdDs4cCDA9O7o__XYkWKtdZEAYWpjQA'
p1256
sg8
S'dataset_2021_03_23_node20-1.pkl'
p1257
sg10
I282857487
ssS'7-7'
p1258
(dp1259
g6
S'10B2RpjW157Fd4jKjVU9hWOvHfmNfudke'
p1260
sg8
S'dataset_2021_03_23_node7-7.pkl'
p1261
sg10
I297311212
ssS'3-2'
p1262
(dp1263
g6
S'1cDXcYX5OJXiOxP-WTzgn3RIpSGa323FW'
p1264
sg8
S'dataset_2021_03_23_node3-2.pkl'
p1265
sg10
I180219753
ssS'8-8'
p1266
(dp1267
g6
S'10GMqNbTlSNT4-OY0AVHscXz59L0a5NL-'
p1268
sg8
S'dataset_2021_03_23_node8-8.pkl'
p1269
sg10
I306146058
ssS'20-19'
p1270
(dp1271
g6
S'1EFKjzv5khgOb9R89wkmnHY2XwXEfWZJm'
p1272
sg8
S'dataset_2021_03_23_node20-19.pkl'
p1273
sg10
I279993166
ssS'8-7'
p1274
(dp1275
g6
S'1st7UbNS_Mqy0HmbQ9cM7w16d3k0y0HtL'
p1276
sg8
S'dataset_2021_03_23_node8-7.pkl'
p1277
sg10
I167559403
ssS'2-19'
p1278
(dp1279
g6
S'1vl3VRoG5LaJTEYTABbjdwaW-TQygJNte'
p1280
sg8
S'dataset_2021_03_23_node2-19.pkl'
p1281
sg10
I266923213
ssss.